; Function Attrs: mustprogress uwtable
define dso_local void @_ZN4Luau10fromStringB5cxx11ESt17basic_string_viewIcSt11char_traitsIcEE(ptr dead_on_unwind noalias writable sret(%"class.std::__cxx11::basic_string") align 8 %0, i64 %1, ptr %2) local_unnamed_addr #6 personality ptr @__gxx_personality_v0 {
  %4 = alloca %"struct.std::__cxx11::basic_string<char>::__sv_wrapper", align 8
  %5 = alloca %"class.std::allocator.1", align 1
  call void @_ZNSaIcEC1Ev(ptr noundef nonnull align 1 dereferenceable(1) %5) #27
  call void @llvm.lifetime.start.p0(i64 16, ptr nonnull %4)
  %6 = call { i64, ptr } @_ZNSt7__cxx1112basic_stringIcSt11char_traitsIcESaIcEE17_S_to_string_viewESt17basic_string_viewIcS2_E(i64 %1, ptr %2) #27
  %7 = extractvalue { i64, ptr } %6, 0
  %8 = extractvalue { i64, ptr } %6, 1
  call void @_ZNSt7__cxx1112basic_stringIcSt11char_traitsIcESaIcEE12__sv_wrapperC1ESt17basic_string_viewIcS2_E(ptr noundef nonnull align 8 dereferenceable(16) %4, i64 %7, ptr %8) #27
  %9 = load i64, ptr %4, align 8
  %10 = getelementptr inbounds nuw i8, ptr %4, i64 8
  %11 = load ptr, ptr %10, align 8
  invoke void @_ZNSt7__cxx1112basic_stringIcSt11char_traitsIcESaIcEEC2ENS4_12__sv_wrapperERKS3_(ptr noundef nonnull align 8 dereferenceable(32) %0, i64 %9, ptr %11, ptr noundef nonnull align 1 dereferenceable(1) %5)
          to label %12 unwind label %13

12:                                               ; preds = %3
  call void @llvm.lifetime.end.p0(i64 16, ptr nonnull %4)
  call void @_ZNSaIcED1Ev(ptr noundef nonnull align 1 dereferenceable(1) %5) #27
  ret void

13:                                               ; preds = %3
  %14 = landingpad { ptr, i32 }
          cleanup
  call void @_ZNSaIcED1Ev(ptr noundef nonnull align 1 dereferenceable(1) %5) #27
  resume { ptr, i32 } %14
}